target datalayout = "e-m:e-p270:32:32-p271:32:32-p272:64:64-i64:64-i128:128-f80:128-n8:16:32:64-S128"
target triple = "x86_64-pc-linux-gnu"

; Function Attrs: nounwind uwtable
define internal i32 @gdsdb_service_start(ptr noundef %0, ptr noundef %1, ptr noundef %2, i32 noundef %3) #0 {
  %5 = alloca i32, align 4
  %6 = alloca ptr, align 8
  %7 = alloca ptr, align 8
  %8 = alloca ptr, align 8
  %9 = alloca i32, align 4
  store ptr %0, ptr %6, align 8
  store ptr %1, ptr %7, align 8
  store ptr %2, ptr %8, align 8
  store i32 %3, ptr %9, align 4
  %10 = load ptr, ptr %6, align 8
  %11 = load i32, ptr %9, align 4
  %12 = call i32 @tvb_reported_length_remaining(ptr noundef %10, i32 noundef %11)
  %13 = icmp slt i32 %12, 16
  br i1 %13, label %14, label %15

14:                                               ; preds = %4
  store i32 -1, ptr %5, align 4
  br label %22

15:                                               ; preds = %4
  %16 = load ptr, ptr %8, align 8
  %17 = icmp ne ptr %16, null
  br i1 %17, label %18, label %19

18:                                               ; preds = %15
  br label %19

19:                                               ; preds = %18, %15
  %20 = load ptr, ptr %6, align 8
  %21 = call i32 @tvb_reported_length(ptr noundef %20)
  store i32 %21, ptr %5, align 4
  br label %22

22:                                               ; preds = %19, %14
  %23 = load i32, ptr %5, align 4
  ret i32 %23
}